target datalayout = "e-m:e-p270:32:32-p271:32:32-p272:64:64-i64:64-i128:128-f80:128-n8:16:32:64-S128"
target triple = "x86_64-pc-linux-gnu"

%class.EventEmitter = type { ptr, ptr, ptr, ptr }
%class.JfrThreadLocal = type <{ ptr, ptr, ptr, ptr, ptr, ptr, ptr, ptr, ptr, ptr, %class.RefCountHandle, i64, i64, i64, i64, i64, i64, i64, i64, i64, i64, i64, i32, i32, i32, i16, i8, i8, i8, i8, i8, [5 x i8] }>
%class.RefCountHandle = type { ptr }

; Function Attrs: mustprogress nounwind uwtable
define linkonce_odr hidden void @_ZN14JfrThreadLocal24clear_cached_stack_traceEv(ptr noundef nonnull align 8 dereferenceable(195) %0) #1 comdat align 2 {
  %2 = alloca ptr, align 8
  store ptr %0, ptr %2, align 8
  %3 = load ptr, ptr %2, align 8
  %4 = getelementptr inbounds %class.JfrThreadLocal, ptr %3, i32 0, i32 15
  store i64 -1, ptr %4, align 8
  %5 = getelementptr inbounds %class.JfrThreadLocal, ptr %3, i32 0, i32 16
  store i64 0, ptr %5, align 8
  ret void
}

; Function Attrs: mustprogress nounwind uwtable
define hidden void @_ZN12EventEmitterD2Ev(ptr noundef nonnull align 8 dereferenceable(32) %0) unnamed_addr #1 align 2 {
  %2 = alloca ptr, align 8
  store ptr %0, ptr %2, align 8
  %3 = load ptr, ptr %2, align 8
  %4 = getelementptr inbounds %class.EventEmitter, ptr %3, i32 0, i32 3
  %5 = load ptr, ptr %4, align 8
  call void @_ZN14JfrThreadLocal24clear_cached_stack_traceEv(ptr noundef nonnull align 8 dereferenceable(195) %5)
  %6 = getelementptr inbounds %class.EventEmitter, ptr %3, i32 0, i32 2
  %7 = load ptr, ptr %6, align 8
  call void @_ZN14JfrThreadLocal18stop_impersonatingEPK6Thread(ptr noundef %7)
  ret void
}