; Function Attrs: mustprogress nounwind uwtable
define hidden void @_ZN12EventEmitterD2Ev(ptr nocapture noundef nonnull readonly align 8 dereferenceable(32) %0) unnamed_addr #1 align 2 {
  %2 = getelementptr inbounds i8, ptr %0, i64 24
  %3 = load ptr, ptr %2, align 8
  %4 = getelementptr inbounds i8, ptr %3, i64 120
  store i64 -1, ptr %4, align 8
  %5 = getelementptr inbounds i8, ptr %3, i64 128
  store i64 0, ptr %5, align 8
  %6 = getelementptr inbounds i8, ptr %0, i64 16
  %7 = load ptr, ptr %6, align 8
  tail call void @_ZN14JfrThreadLocal18stop_impersonatingEPK6Thread(ptr noundef %7) #10
  ret void
}